target datalayout = "e-m:e-p270:32:32-p271:32:32-p272:64:64-i64:64-i128:128-f80:128-n8:16:32:64-S128"
target triple = "x86_64-pc-linux-gnu"

; Function Attrs: mustprogress nounwind uwtable
define internal noundef i32 @_ZN2cvL9normL2SqrIaiEET0_PKT_S4_i(ptr noundef %0, ptr noundef %1, i32 noundef %2) #1 {
  %4 = alloca ptr, align 8
  %5 = alloca ptr, align 8
  %6 = alloca i32, align 4
  %7 = alloca i32, align 4
  %8 = alloca i32, align 4
  %9 = alloca i32, align 4
  store ptr %0, ptr %4, align 8
  store ptr %1, ptr %5, align 8
  store i32 %2, ptr %6, align 4
  store i32 0, ptr %7, align 4
  store i32 0, ptr %8, align 4
  br label %10

10:                                               ; preds = %33, %3
  %11 = load i32, ptr %8, align 4
  %12 = load i32, ptr %6, align 4
  %13 = icmp slt i32 %11, %12
  br i1 %13, label %14, label %36

14:                                               ; preds = %10
  %15 = load ptr, ptr %4, align 8
  %16 = load i32, ptr %8, align 4
  %17 = sext i32 %16 to i64
  %18 = getelementptr inbounds i8, ptr %15, i64 %17
  %19 = load i8, ptr %18, align 1
  %20 = sext i8 %19 to i32
  %21 = load ptr, ptr %5, align 8
  %22 = load i32, ptr %8, align 4
  %23 = sext i32 %22 to i64
  %24 = getelementptr inbounds i8, ptr %21, i64 %23
  %25 = load i8, ptr %24, align 1
  %26 = sext i8 %25 to i32
  %27 = sub nsw i32 %20, %26
  store i32 %27, ptr %9, align 4
  %28 = load i32, ptr %9, align 4
  %29 = load i32, ptr %9, align 4
  %30 = mul nsw i32 %28, %29
  %31 = load i32, ptr %7, align 4
  %32 = add nsw i32 %31, %30
  store i32 %32, ptr %7, align 4
  br label %33

33:                                               ; preds = %14
  %34 = load i32, ptr %8, align 4
  %35 = add nsw i32 %34, 1
  store i32 %35, ptr %8, align 4
  br label %10, !llvm.loop !135

36:                                               ; preds = %10
  %37 = load i32, ptr %7, align 4
  ret i32 %37
}

; Function Attrs: mustprogress uwtable
define linkonce_odr hidden noundef i32 @_ZN2cv11normDiffL2_IaiEEiPKT_S3_PKhPT0_ii(ptr noundef %0, ptr noundef %1, ptr noundef %2, ptr noundef %3, i32 noundef %4, i32 noundef %5) #0 comdat {
  %7 = alloca ptr, align 8
  %8 = alloca ptr, align 8
  %9 = alloca ptr, align 8
  %10 = alloca ptr, align 8
  %11 = alloca i32, align 4
  %12 = alloca i32, align 4
  %13 = alloca i32, align 4
  %14 = alloca i32, align 4
  %15 = alloca i32, align 4
  %16 = alloca i32, align 4
  store ptr %0, ptr %7, align 8
  store ptr %1, ptr %8, align 8
  store ptr %2, ptr %9, align 8
  store ptr %3, ptr %10, align 8
  store i32 %4, ptr %11, align 4
  store i32 %5, ptr %12, align 4
  %17 = load ptr, ptr %10, align 8
  %18 = load i32, ptr %17, align 4
  store i32 %18, ptr %13, align 4
  %19 = load ptr, ptr %9, align 8
  %20 = icmp ne ptr %19, null
  br i1 %20, label %30, label %21

21:                                               ; preds = %6
  %22 = load ptr, ptr %7, align 8
  %23 = load ptr, ptr %8, align 8
  %24 = load i32, ptr %11, align 4
  %25 = load i32, ptr %12, align 4
  %26 = mul nsw i32 %24, %25
  %27 = call noundef i32 @_ZN2cvL9normL2SqrIaiEET0_PKT_S4_i(ptr noundef %22, ptr noundef %23, i32 noundef %26)
  %28 = load i32, ptr %13, align 4
  %29 = add nsw i32 %28, %27
  store i32 %29, ptr %13, align 4
  br label %83

30:                                               ; preds = %6
  store i32 0, ptr %14, align 4
  br label %31

31:                                               ; preds = %71, %30
  %32 = load i32, ptr %14, align 4
  %33 = load i32, ptr %11, align 4
  %34 = icmp slt i32 %32, %33
  br i1 %34, label %35, label %82

35:                                               ; preds = %31
  %36 = load ptr, ptr %9, align 8
  %37 = load i32, ptr %14, align 4
  %38 = sext i32 %37 to i64
  %39 = getelementptr inbounds i8, ptr %36, i64 %38
  %40 = load i8, ptr %39, align 1
  %41 = icmp ne i8 %40, 0
  br i1 %41, label %42, label %70

42:                                               ; preds = %35
  store i32 0, ptr %15, align 4
  br label %43

43:                                               ; preds = %66, %42
  %44 = load i32, ptr %15, align 4
  %45 = load i32, ptr %12, align 4
  %46 = icmp slt i32 %44, %45
  br i1 %46, label %47, label %69

47:                                               ; preds = %43
  %48 = load ptr, ptr %7, align 8
  %49 = load i32, ptr %15, align 4
  %50 = sext i32 %49 to i64
  %51 = getelementptr inbounds i8, ptr %48, i64 %50
  %52 = load i8, ptr %51, align 1
  %53 = sext i8 %52 to i32
  %54 = load ptr, ptr %8, align 8
  %55 = load i32, ptr %15, align 4
  %56 = sext i32 %55 to i64
  %57 = getelementptr inbounds i8, ptr %54, i64 %56
  %58 = load i8, ptr %57, align 1
  %59 = sext i8 %58 to i32
  %60 = sub nsw i32 %53, %59
  store i32 %60, ptr %16, align 4
  %61 = load i32, ptr %16, align 4
  %62 = load i32, ptr %16, align 4
  %63 = mul nsw i32 %61, %62
  %64 = load i32, ptr %13, align 4
  %65 = add nsw i32 %64, %63
  store i32 %65, ptr %13, align 4
  br label %66

66:                                               ; preds = %47
  %67 = load i32, ptr %15, align 4
  %68 = add nsw i32 %67, 1
  store i32 %68, ptr %15, align 4
  br label %43, !llvm.loop !133

69:                                               ; preds = %43
  br label %70

70:                                               ; preds = %69, %35
  br label %71

71:                                               ; preds = %70
  %72 = load i32, ptr %14, align 4
  %73 = add nsw i32 %72, 1
  store i32 %73, ptr %14, align 4
  %74 = load i32, ptr %12, align 4
  %75 = load ptr, ptr %7, align 8
  %76 = sext i32 %74 to i64
  %77 = getelementptr inbounds i8, ptr %75, i64 %76
  store ptr %77, ptr %7, align 8
  %78 = load i32, ptr %12, align 4
  %79 = load ptr, ptr %8, align 8
  %80 = sext i32 %78 to i64
  %81 = getelementptr inbounds i8, ptr %79, i64 %80
  store ptr %81, ptr %8, align 8
  br label %31, !llvm.loop !134

82:                                               ; preds = %31
  br label %83

83:                                               ; preds = %82, %21
  %84 = load i32, ptr %13, align 4
  %85 = load ptr, ptr %10, align 8
  store i32 %84, ptr %85, align 4
  ret i32 0
}

; Function Attrs: mustprogress uwtable
define internal noundef i32 @_ZN2cvL13normDiffL2_8sEPKaS1_PKhPiii(ptr noundef %0, ptr noundef %1, ptr noundef %2, ptr noundef %3, i32 noundef %4, i32 noundef %5) #0 {
  %7 = alloca ptr, align 8
  %8 = alloca ptr, align 8
  %9 = alloca ptr, align 8
  %10 = alloca ptr, align 8
  %11 = alloca i32, align 4
  %12 = alloca i32, align 4
  store ptr %0, ptr %7, align 8
  store ptr %1, ptr %8, align 8
  store ptr %2, ptr %9, align 8
  store ptr %3, ptr %10, align 8
  store i32 %4, ptr %11, align 4
  store i32 %5, ptr %12, align 4
  %13 = load ptr, ptr %7, align 8
  %14 = load ptr, ptr %8, align 8
  %15 = load ptr, ptr %9, align 8
  %16 = load ptr, ptr %10, align 8
  %17 = load i32, ptr %11, align 4
  %18 = load i32, ptr %12, align 4
  %19 = call noundef i32 @_ZN2cv11normDiffL2_IaiEEiPKT_S3_PKhPT0_ii(ptr noundef %13, ptr noundef %14, ptr noundef %15, ptr noundef %16, i32 noundef %17, i32 noundef %18)
  ret i32 %19
}